; Function Attrs: mustprogress uwtable
define hidden void @_ZN19OpenColorIO_v2_4dev30DynamicPropertyGradingToneImplC2ERKNS_11GradingToneENS_12GradingStyleEb(ptr noundef nonnull align 8 dereferenceable(1208) %this, ptr nocapture noundef nonnull readonly align 8 dereferenceable(248) %value, i32 noundef %style, i1 noundef zeroext %dynamic) unnamed_addr #0 align 2 personality ptr @__gxx_personality_v0 {
entry:
  %frombool.i = zext i1 %dynamic to i8
  %m_type.i = getelementptr inbounds i8, ptr %this, i64 8
  store i32 5, ptr %m_type.i, align 8
  %m_isDynamic.i = getelementptr inbounds i8, ptr %this, i64 12
  store i8 %frombool.i, ptr %m_isDynamic.i, align 4
  %0 = getelementptr inbounds i8, ptr %this, i64 16
  store ptr getelementptr inbounds ({ [7 x ptr], [6 x ptr] }, ptr @_ZTVN19OpenColorIO_v2_4dev30DynamicPropertyGradingToneImplE, i64 0, i32 0, i64 2), ptr %this, align 8
  store ptr getelementptr inbounds ({ [7 x ptr], [6 x ptr] }, ptr @_ZTVN19OpenColorIO_v2_4dev30DynamicPropertyGradingToneImplE, i64 0, i32 1, i64 2), ptr %0, align 8
  %m_value = getelementptr inbounds i8, ptr %this, i64 24
  tail call void @llvm.memcpy.p0.p0.i64(ptr noundef nonnull align 8 dereferenceable(248) %m_value, ptr noundef nonnull align 8 dereferenceable(248) %value, i64 248, i1 false)
  %m_preRenderValues = getelementptr inbounds i8, ptr %this, i64 272
  tail call void @_ZN19OpenColorIO_v2_4dev20GradingTonePreRenderC1ENS_12GradingStyleE(ptr noundef nonnull align 8 dereferenceable(936) %m_preRenderValues, i32 noundef %style)
  tail call void @_ZN19OpenColorIO_v2_4dev20GradingTonePreRender6updateERKNS_11GradingToneE(ptr noundef nonnull align 8 dereferenceable(936) %m_preRenderValues, ptr noundef nonnull align 8 dereferenceable(248) %m_value)
  ret void
}